target datalayout = "e-m:e-p270:32:32-p271:32:32-p272:64:64-i64:64-i128:128-f80:128-n8:16:32:64-S128"
target triple = "x86_64-pc-linux-gnu"

%struct.AudioData = type { [64 x ptr], ptr, i32, i32, i32, i32, i32 }

; Function Attrs: nounwind uwtable
define internal void @set_audiodata_fmt(ptr noundef %0, i32 noundef %1) #0 {
  %3 = alloca ptr, align 8
  %4 = alloca i32, align 4
  store ptr %0, ptr %3, align 8, !tbaa !96
  store i32 %1, ptr %4, align 4, !tbaa !31
  %5 = load i32, ptr %4, align 4, !tbaa !31
  %6 = load ptr, ptr %3, align 8, !tbaa !96
  %7 = getelementptr inbounds nuw %struct.AudioData, ptr %6, i32 0, i32 6
  store i32 %5, ptr %7, align 8, !tbaa !98
  %8 = load i32, ptr %4, align 4, !tbaa !31
  %9 = call i32 @av_get_bytes_per_sample(i32 noundef %8)
  %10 = load ptr, ptr %3, align 8, !tbaa !96
  %11 = getelementptr inbounds nuw %struct.AudioData, ptr %10, i32 0, i32 3
  store i32 %9, ptr %11, align 4, !tbaa !99
  %12 = load i32, ptr %4, align 4, !tbaa !31
  %13 = call i32 @av_sample_fmt_is_planar(i32 noundef %12)
  %14 = load ptr, ptr %3, align 8, !tbaa !96
  %15 = getelementptr inbounds nuw %struct.AudioData, ptr %14, i32 0, i32 5
  store i32 %13, ptr %15, align 4, !tbaa !100
  %16 = load ptr, ptr %3, align 8, !tbaa !96
  %17 = getelementptr inbounds nuw %struct.AudioData, ptr %16, i32 0, i32 2
  %18 = load i32, ptr %17, align 8, !tbaa !101
  %19 = icmp eq i32 %18, 1
  br i1 %19, label %20, label %23

20:                                               ; preds = %2
  %21 = load ptr, ptr %3, align 8, !tbaa !96
  %22 = getelementptr inbounds nuw %struct.AudioData, ptr %21, i32 0, i32 5
  store i32 1, ptr %22, align 4, !tbaa !100
  br label %23

23:                                               ; preds = %20, %2
  ret void
}