; Function Attrs: nounwind uwtable
define internal fastcc void @set_audiodata_fmt(ptr noundef captures(none) initializes((524, 528), (532, 540)) %0, i32 noundef %1) unnamed_addr #1 {
  %3 = getelementptr inbounds nuw i8, ptr %0, i64 536
  store i32 %1, ptr %3, align 8, !tbaa !90
  %4 = tail call i32 @av_get_bytes_per_sample(i32 noundef %1) #12
  %5 = getelementptr inbounds nuw i8, ptr %0, i64 524
  store i32 %4, ptr %5, align 4, !tbaa !91
  %6 = tail call i32 @av_sample_fmt_is_planar(i32 noundef %1) #12
  %7 = getelementptr inbounds nuw i8, ptr %0, i64 532
  %8 = getelementptr inbounds nuw i8, ptr %0, i64 520
  %9 = load i32, ptr %8, align 8, !tbaa !92
  %10 = icmp eq i32 %9, 1
  %spec.store.select = select i1 %10, i32 1, i32 %6
  store i32 %spec.store.select, ptr %7, align 4
  ret void
}